target datalayout = "e-m:e-p270:32:32-p271:32:32-p272:64:64-i64:64-i128:128-f80:128-n8:16:32:64-S128"
target triple = "x86_64-pc-linux-gnu"

@.str.14 = private unnamed_addr constant [2 x i8] c"\0A\00", align 1
@.str.15 = private unnamed_addr constant [25 x i8] c"Usage: sharkd [options]\0A\00", align 1
@.str.16 = private unnamed_addr constant [17 x i8] c"  or   sharkd -\0A\00", align 1
@.str.17 = private unnamed_addr constant [10 x i8] c"Options:\0A\00", align 1
@.str.18 = private unnamed_addr constant [31 x i8] c"  -a <socket>, --api <socket>\0A\00", align 1
@.str.19 = private unnamed_addr constant [73 x i8] c"                           listen on this socket instead of the console\0A\00", align 1
@.str.20 = private unnamed_addr constant [55 x i8] c"  --foreground             do not detach from console\0A\00", align 1
@.str.21 = private unnamed_addr constant [55 x i8] c"  -h, --help               show this help information\0A\00", align 1
@.str.22 = private unnamed_addr constant [53 x i8] c"  -v, --version            show version information\0A\00", align 1
@.str.23 = private unnamed_addr constant [58 x i8] c"  -C <config profile>, --config-profile <config profile>\0A\00", align 1
@.str.24 = private unnamed_addr constant [71 x i8] c"                           start with specified configuration profile\0A\00", align 1
@.str.25 = private unnamed_addr constant [25 x i8] c"Supported socket types:\0A\00", align 1
@.str.26 = private unnamed_addr constant [80 x i8] c"    unix:/tmp/sharkd.sock - listen on Unix domain socket file /tmp/sharkd.sock\0A\00", align 1
@.str.27 = private unnamed_addr constant [82 x i8] c"    unix:@sharkd          - listen on abstract Unix socket 'sharkd' (Linux-only)\0A\00", align 1
@.str.28 = private unnamed_addr constant [46 x i8] c"    (TCP sockets are disabled in this build)\0A\00", align 1
@.str.29 = private unnamed_addr constant [60 x i8] c"If no socket option is provided, or if 'sharkd -' is used,\0A\00", align 1
@.str.30 = private unnamed_addr constant [59 x i8] c"sharkd will accept commands via console (standard input).\0A\00", align 1
@.str.31 = private unnamed_addr constant [11 x i8] c"Examples:\0A\00", align 1
@.str.32 = private unnamed_addr constant [14 x i8] c"    sharkd -\0A\00", align 1
@.str.33 = private unnamed_addr constant [25 x i8] c"    sharkd -C myprofile\0A\00", align 1
@.str.34 = private unnamed_addr constant [50 x i8] c"    sharkd -a unix:/tmp/sharkd.sock -C myprofile\0A\00", align 1
@.str.35 = private unnamed_addr constant [77 x i8] c"For security reasons, do not directly expose sharkd to the public Internet.\0A\00", align 1
@.str.36 = private unnamed_addr constant [67 x i8] c"Instead, have a separate backend service to interact with sharkd.\0A\00", align 1
@.str.37 = private unnamed_addr constant [69 x i8] c"For full details, see https://wiki.wireshark.org/Development/sharkd\0A\00", align 1

; Function Attrs: null_pointer_is_valid sspstrong uwtable
define internal void @print_usage(ptr noundef %0) #0 {
  %2 = alloca ptr, align 8
  store ptr %0, ptr %2, align 8
  %3 = load ptr, ptr %2, align 8
  %4 = call i32 (ptr, i32, ptr, ...) @__fprintf_chk(ptr noundef %3, i32 noundef 2, ptr noundef @.str.14)
  %5 = load ptr, ptr %2, align 8
  %6 = call i32 (ptr, i32, ptr, ...) @__fprintf_chk(ptr noundef %5, i32 noundef 2, ptr noundef @.str.15)
  %7 = load ptr, ptr %2, align 8
  %8 = call i32 (ptr, i32, ptr, ...) @__fprintf_chk(ptr noundef %7, i32 noundef 2, ptr noundef @.str.16)
  %9 = load ptr, ptr %2, align 8
  %10 = call i32 (ptr, i32, ptr, ...) @__fprintf_chk(ptr noundef %9, i32 noundef 2, ptr noundef @.str.14)
  %11 = load ptr, ptr %2, align 8
  %12 = call i32 (ptr, i32, ptr, ...) @__fprintf_chk(ptr noundef %11, i32 noundef 2, ptr noundef @.str.17)
  %13 = load ptr, ptr %2, align 8
  %14 = call i32 (ptr, i32, ptr, ...) @__fprintf_chk(ptr noundef %13, i32 noundef 2, ptr noundef @.str.18)
  %15 = load ptr, ptr %2, align 8
  %16 = call i32 (ptr, i32, ptr, ...) @__fprintf_chk(ptr noundef %15, i32 noundef 2, ptr noundef @.str.19)
  %17 = load ptr, ptr %2, align 8
  %18 = call i32 (ptr, i32, ptr, ...) @__fprintf_chk(ptr noundef %17, i32 noundef 2, ptr noundef @.str.20)
  %19 = load ptr, ptr %2, align 8
  %20 = call i32 (ptr, i32, ptr, ...) @__fprintf_chk(ptr noundef %19, i32 noundef 2, ptr noundef @.str.21)
  %21 = load ptr, ptr %2, align 8
  %22 = call i32 (ptr, i32, ptr, ...) @__fprintf_chk(ptr noundef %21, i32 noundef 2, ptr noundef @.str.22)
  %23 = load ptr, ptr %2, align 8
  %24 = call i32 (ptr, i32, ptr, ...) @__fprintf_chk(ptr noundef %23, i32 noundef 2, ptr noundef @.str.23)
  %25 = load ptr, ptr %2, align 8
  %26 = call i32 (ptr, i32, ptr, ...) @__fprintf_chk(ptr noundef %25, i32 noundef 2, ptr noundef @.str.24)
  %27 = load ptr, ptr %2, align 8
  %28 = call i32 (ptr, i32, ptr, ...) @__fprintf_chk(ptr noundef %27, i32 noundef 2, ptr noundef @.str.14)
  %29 = load ptr, ptr %2, align 8
  %30 = call i32 (ptr, i32, ptr, ...) @__fprintf_chk(ptr noundef %29, i32 noundef 2, ptr noundef @.str.25)
  %31 = load ptr, ptr %2, align 8
  %32 = call i32 (ptr, i32, ptr, ...) @__fprintf_chk(ptr noundef %31, i32 noundef 2, ptr noundef @.str.26)
  %33 = load ptr, ptr %2, align 8
  %34 = call i32 (ptr, i32, ptr, ...) @__fprintf_chk(ptr noundef %33, i32 noundef 2, ptr noundef @.str.27)
  %35 = load ptr, ptr %2, align 8
  %36 = call i32 (ptr, i32, ptr, ...) @__fprintf_chk(ptr noundef %35, i32 noundef 2, ptr noundef @.str.28)
  %37 = load ptr, ptr %2, align 8
  %38 = call i32 (ptr, i32, ptr, ...) @__fprintf_chk(ptr noundef %37, i32 noundef 2, ptr noundef @.str.14)
  %39 = load ptr, ptr %2, align 8
  %40 = call i32 (ptr, i32, ptr, ...) @__fprintf_chk(ptr noundef %39, i32 noundef 2, ptr noundef @.str.29)
  %41 = load ptr, ptr %2, align 8
  %42 = call i32 (ptr, i32, ptr, ...) @__fprintf_chk(ptr noundef %41, i32 noundef 2, ptr noundef @.str.30)
  %43 = load ptr, ptr %2, align 8
  %44 = call i32 (ptr, i32, ptr, ...) @__fprintf_chk(ptr noundef %43, i32 noundef 2, ptr noundef @.str.14)
  %45 = load ptr, ptr %2, align 8
  %46 = call i32 (ptr, i32, ptr, ...) @__fprintf_chk(ptr noundef %45, i32 noundef 2, ptr noundef @.str.31)
  %47 = load ptr, ptr %2, align 8
  %48 = call i32 (ptr, i32, ptr, ...) @__fprintf_chk(ptr noundef %47, i32 noundef 2, ptr noundef @.str.32)
  %49 = load ptr, ptr %2, align 8
  %50 = call i32 (ptr, i32, ptr, ...) @__fprintf_chk(ptr noundef %49, i32 noundef 2, ptr noundef @.str.33)
  %51 = load ptr, ptr %2, align 8
  %52 = call i32 (ptr, i32, ptr, ...) @__fprintf_chk(ptr noundef %51, i32 noundef 2, ptr noundef @.str.34)
  %53 = load ptr, ptr %2, align 8
  %54 = call i32 (ptr, i32, ptr, ...) @__fprintf_chk(ptr noundef %53, i32 noundef 2, ptr noundef @.str.14)
  %55 = load ptr, ptr %2, align 8
  %56 = call i32 (ptr, i32, ptr, ...) @__fprintf_chk(ptr noundef %55, i32 noundef 2, ptr noundef @.str.35)
  %57 = load ptr, ptr %2, align 8
  %58 = call i32 (ptr, i32, ptr, ...) @__fprintf_chk(ptr noundef %57, i32 noundef 2, ptr noundef @.str.36)
  %59 = load ptr, ptr %2, align 8
  %60 = call i32 (ptr, i32, ptr, ...) @__fprintf_chk(ptr noundef %59, i32 noundef 2, ptr noundef @.str.14)
  %61 = load ptr, ptr %2, align 8
  %62 = call i32 (ptr, i32, ptr, ...) @__fprintf_chk(ptr noundef %61, i32 noundef 2, ptr noundef @.str.37)
  %63 = load ptr, ptr %2, align 8
  %64 = call i32 (ptr, i32, ptr, ...) @__fprintf_chk(ptr noundef %63, i32 noundef 2, ptr noundef @.str.14)
  ret void
}